target datalayout = "e-m:e-p270:32:32-p271:32:32-p272:64:64-i64:64-i128:128-f80:128-n8:16:32:64-S128"
target triple = "x86_64-pc-linux-gnu"

%struct._dof_ns_session_key = type { i32, i32, i32, i8 }

; Function Attrs: nounwind null_pointer_is_valid sspstrong uwtable
define internal i32 @dof_ns_session_key_equal_fn(ptr noundef %0, ptr noundef %1) #2 {
  %3 = alloca i32, align 4
  %4 = alloca ptr, align 8
  %5 = alloca ptr, align 8
  %6 = alloca ptr, align 8
  %7 = alloca ptr, align 8
  %8 = alloca i32, align 4
  store ptr %0, ptr %4, align 8
  store ptr %1, ptr %5, align 8
  call void @llvm.lifetime.start.p0(i64 8, ptr %6) #19
  %9 = load ptr, ptr %4, align 8
  store ptr %9, ptr %6, align 8
  call void @llvm.lifetime.start.p0(i64 8, ptr %7) #19
  %10 = load ptr, ptr %5, align 8
  store ptr %10, ptr %7, align 8
  %11 = load ptr, ptr %6, align 8
  %12 = getelementptr inbounds nuw %struct._dof_ns_session_key, ptr %11, i32 0, i32 0
  %13 = load i32, ptr %12, align 4
  %14 = load ptr, ptr %7, align 8
  %15 = getelementptr inbounds nuw %struct._dof_ns_session_key, ptr %14, i32 0, i32 0
  %16 = load i32, ptr %15, align 4
  %17 = icmp ne i32 %13, %16
  br i1 %17, label %18, label %19

18:                                               ; preds = %2
  store i32 0, ptr %3, align 4
  store i32 1, ptr %8, align 4
  br label %38

19:                                               ; preds = %2
  %20 = load ptr, ptr %6, align 8
  %21 = getelementptr inbounds nuw %struct._dof_ns_session_key, ptr %20, i32 0, i32 1
  %22 = load i32, ptr %21, align 4
  %23 = load ptr, ptr %7, align 8
  %24 = getelementptr inbounds nuw %struct._dof_ns_session_key, ptr %23, i32 0, i32 1
  %25 = load i32, ptr %24, align 4
  %26 = icmp ne i32 %22, %25
  br i1 %26, label %27, label %28

27:                                               ; preds = %19
  store i32 0, ptr %3, align 4
  store i32 1, ptr %8, align 4
  br label %38

28:                                               ; preds = %19
  %29 = load ptr, ptr %6, align 8
  %30 = getelementptr inbounds nuw %struct._dof_ns_session_key, ptr %29, i32 0, i32 2
  %31 = load i32, ptr %30, align 4
  %32 = load ptr, ptr %7, align 8
  %33 = getelementptr inbounds nuw %struct._dof_ns_session_key, ptr %32, i32 0, i32 2
  %34 = load i32, ptr %33, align 4
  %35 = icmp ne i32 %31, %34
  br i1 %35, label %36, label %37

36:                                               ; preds = %28
  store i32 0, ptr %3, align 4
  store i32 1, ptr %8, align 4
  br label %38

37:                                               ; preds = %28
  store i32 1, ptr %3, align 4
  store i32 1, ptr %8, align 4
  br label %38

38:                                               ; preds = %37, %36, %27, %18
  call void @llvm.lifetime.end.p0(i64 8, ptr %7) #19
  call void @llvm.lifetime.end.p0(i64 8, ptr %6) #19
  %39 = load i32, ptr %3, align 4
  ret i32 %39
}