; Function Attrs: mustprogress nofree norecurse nosync nounwind null_pointer_is_valid sspstrong willreturn memory(argmem: read) uwtable
define internal range(i32 0, 2) i32 @dof_ns_session_key_equal_fn(ptr noundef readonly captures(none) %0, ptr noundef readonly captures(none) %1) #13 {
  %3 = load i32, ptr %0, align 4
  %4 = load i32, ptr %1, align 4
  %.not = icmp eq i32 %3, %4
  br i1 %.not, label %5, label %15

5:                                                ; preds = %2
  %6 = getelementptr inbounds nuw i8, ptr %0, i64 4
  %7 = load i32, ptr %6, align 4
  %8 = getelementptr inbounds nuw i8, ptr %1, i64 4
  %9 = load i32, ptr %8, align 4
  %.not8 = icmp eq i32 %7, %9
  br i1 %.not8, label %10, label %15

10:                                               ; preds = %5
  %11 = getelementptr inbounds nuw i8, ptr %0, i64 8
  %12 = load i32, ptr %11, align 4
  %13 = getelementptr inbounds nuw i8, ptr %1, i64 8
  %14 = load i32, ptr %13, align 4
  %.not9 = icmp eq i32 %12, %14
  %. = zext i1 %.not9 to i32
  br label %15

15:                                               ; preds = %10, %5, %2
  %.0 = phi i32 [ 0, %2 ], [ 0, %5 ], [ %., %10 ]
  ret i32 %.0
}